target datalayout = "e-m:e-p270:32:32-p271:32:32-p272:64:64-i64:64-i128:128-f80:128-n8:16:32:64-S128"
target triple = "x86_64-unknown-linux-gnu"

%"struct.std::nothrow_t" = type { i8 }
%"class.zmq::epoll_t" = type { %"class.zmq::worker_poller_base_t", i32, %"class.std::vector" }
%"class.zmq::worker_poller_base_t" = type { %"class.zmq::poller_base_t", ptr, %"class.zmq::thread_t" }
%"class.zmq::poller_base_t" = type { ptr, %"class.zmq::clock_t", %"class.std::multimap", %"class.zmq::atomic_counter_t" }
%"class.zmq::clock_t" = type { i64, i64 }
%"class.std::multimap" = type { %"class.std::_Rb_tree" }
%"class.std::_Rb_tree" = type { %"struct.std::_Rb_tree<unsigned long, std::pair<const unsigned long, zmq::poller_base_t::timer_info_t>, std::_Select1st<std::pair<const unsigned long, zmq::poller_base_t::timer_info_t>>, std::less<unsigned long>>::_Rb_tree_impl" }
%"struct.std::_Rb_tree<unsigned long, std::pair<const unsigned long, zmq::poller_base_t::timer_info_t>, std::_Select1st<std::pair<const unsigned long, zmq::poller_base_t::timer_info_t>>, std::less<unsigned long>>::_Rb_tree_impl" = type { %"struct.std::_Rb_tree_key_compare", %"struct.std::_Rb_tree_header" }
%"struct.std::_Rb_tree_key_compare" = type { %"struct.std::less" }
%"struct.std::less" = type { i8 }
%"struct.std::_Rb_tree_header" = type { %"struct.std::_Rb_tree_node_base", i64 }
%"struct.std::_Rb_tree_node_base" = type { i32, ptr, ptr, ptr }
%"class.zmq::atomic_counter_t" = type { %"struct.std::atomic", [4 x i8] }
%"struct.std::atomic" = type { %"struct.std::__atomic_base" }
%"struct.std::__atomic_base" = type { i32 }
%"class.zmq::thread_t" = type { ptr, ptr, [16 x i8], i8, i64, i32, i32, %"class.std::set" }
%"class.std::set" = type { %"class.std::_Rb_tree.0" }
%"class.std::_Rb_tree.0" = type { %"struct.std::_Rb_tree<int, int, std::_Identity<int>, std::less<int>>::_Rb_tree_impl" }
%"struct.std::_Rb_tree<int, int, std::_Identity<int>, std::less<int>>::_Rb_tree_impl" = type { %"struct.std::_Rb_tree_key_compare.4", %"struct.std::_Rb_tree_header" }
%"struct.std::_Rb_tree_key_compare.4" = type { %"struct.std::less.5" }
%"struct.std::less.5" = type { i8 }
%"class.std::vector" = type { %"struct.std::_Vector_base" }
%"struct.std::_Vector_base" = type { %"struct.std::_Vector_base<zmq::epoll_t::poll_entry_t *, std::allocator<zmq::epoll_t::poll_entry_t *>>::_Vector_impl" }
%"struct.std::_Vector_base<zmq::epoll_t::poll_entry_t *, std::allocator<zmq::epoll_t::poll_entry_t *>>::_Vector_impl" = type { %"struct.std::_Vector_base<zmq::epoll_t::poll_entry_t *, std::allocator<zmq::epoll_t::poll_entry_t *>>::_Vector_impl_data" }
%"struct.std::_Vector_base<zmq::epoll_t::poll_entry_t *, std::allocator<zmq::epoll_t::poll_entry_t *>>::_Vector_impl_data" = type { ptr, ptr, ptr }
%"struct.zmq::epoll_t::poll_entry_t" = type { i32, %struct.epoll_event, ptr }
%struct.epoll_event = type <{ i32, %union.epoll_data }>
%union.epoll_data = type { ptr }

@stderr = external global ptr, align 8
@.str = private unnamed_addr constant [12 x i8] c"%s (%s:%d)\0A\00", align 1
@.str.1 = private unnamed_addr constant [105 x i8] c"generated/home/dtcxzyw/WorkSpace/Projects/compilers/llvm-opt-benchmark/bench/libzmq/libzmq/src/epoll.cpp\00", align 1
@_ZSt7nothrow = external global %"struct.std::nothrow_t", align 1
@.str.2 = private unnamed_addr constant [36 x i8] c"FATAL ERROR: OUT OF MEMORY (%s:%d)\0A\00", align 1
@.str.3 = private unnamed_addr constant [27 x i8] c"FATAL ERROR: OUT OF MEMORY\00", align 1

; Function Attrs: mustprogress uwtable
define noundef ptr @_ZN3zmq7epoll_t6add_fdEiPNS_13i_poll_eventsE(ptr noundef nonnull align 8 dereferenceable(224) %this, i32 noundef %fd_, ptr noundef %events_) #0 align 2 {
entry:
  %this.addr = alloca ptr, align 8
  %fd_.addr = alloca i32, align 4
  %events_.addr = alloca ptr, align 8
  %pe = alloca ptr, align 8
  %cleanup.cond = alloca i1, align 1
  %rc = alloca i32, align 4
  %errstr = alloca ptr, align 8
  store ptr %this, ptr %this.addr, align 8
  store i32 %fd_, ptr %fd_.addr, align 4
  store ptr %events_, ptr %events_.addr, align 8
  %this1 = load ptr, ptr %this.addr, align 8
  call void @_ZNK3zmq20worker_poller_base_t12check_threadEv(ptr noundef nonnull align 8 dereferenceable(192) %this1)
  %call = call noalias noundef ptr @_ZnwmRKSt9nothrow_t(i64 noundef 24, ptr noundef nonnull align 1 dereferenceable(1) @_ZSt7nothrow) #17
  %new.isnull = icmp eq ptr %call, null
  store i1 false, ptr %cleanup.cond, align 1
  br i1 %new.isnull, label %new.cont, label %new.notnull

new.notnull:                                      ; preds = %entry
  store i1 true, ptr %cleanup.cond, align 1
  br label %new.cont

new.cont:                                         ; preds = %new.notnull, %entry
  %0 = phi ptr [ %call, %new.notnull ], [ null, %entry ]
  store ptr %0, ptr %pe, align 8
  br label %do.body

do.body:                                          ; preds = %new.cont
  %1 = load ptr, ptr %pe, align 8
  %tobool = icmp ne ptr %1, null
  %lnot = xor i1 %tobool, true
  br i1 %lnot, label %if.then, label %if.end

if.then:                                          ; preds = %do.body
  %2 = load ptr, ptr @stderr, align 8
  %call2 = call i32 (ptr, ptr, ...) @fprintf(ptr noundef %2, ptr noundef @.str.2, ptr noundef @.str.1, i32 noundef 61)
  %3 = load ptr, ptr @stderr, align 8
  %call3 = call i32 @fflush(ptr noundef %3)
  call void @_ZN3zmq9zmq_abortEPKc(ptr noundef @.str.3)
  br label %if.end

if.end:                                           ; preds = %if.then, %do.body
  br label %do.end

do.end:                                           ; preds = %if.end
  %4 = load ptr, ptr %pe, align 8
  call void @llvm.memset.p0.i64(ptr align 8 %4, i8 0, i64 24, i1 false)
  %5 = load i32, ptr %fd_.addr, align 4
  %6 = load ptr, ptr %pe, align 8
  %fd = getelementptr inbounds %"struct.zmq::epoll_t::poll_entry_t", ptr %6, i32 0, i32 0
  store i32 %5, ptr %fd, align 8
  %7 = load ptr, ptr %pe, align 8
  %ev = getelementptr inbounds %"struct.zmq::epoll_t::poll_entry_t", ptr %7, i32 0, i32 1
  %events = getelementptr inbounds %struct.epoll_event, ptr %ev, i32 0, i32 0
  store i32 0, ptr %events, align 4
  %8 = load ptr, ptr %pe, align 8
  %9 = load ptr, ptr %pe, align 8
  %ev4 = getelementptr inbounds %"struct.zmq::epoll_t::poll_entry_t", ptr %9, i32 0, i32 1
  %data = getelementptr inbounds %struct.epoll_event, ptr %ev4, i32 0, i32 1
  store ptr %8, ptr %data, align 4
  %10 = load ptr, ptr %events_.addr, align 8
  %11 = load ptr, ptr %pe, align 8
  %events5 = getelementptr inbounds %"struct.zmq::epoll_t::poll_entry_t", ptr %11, i32 0, i32 2
  store ptr %10, ptr %events5, align 8
  %_epoll_fd = getelementptr inbounds %"class.zmq::epoll_t", ptr %this1, i32 0, i32 1
  %12 = load i32, ptr %_epoll_fd, align 8
  %13 = load i32, ptr %fd_.addr, align 4
  %14 = load ptr, ptr %pe, align 8
  %ev6 = getelementptr inbounds %"struct.zmq::epoll_t::poll_entry_t", ptr %14, i32 0, i32 1
  %call7 = call i32 @epoll_ctl(i32 noundef %12, i32 noundef 1, i32 noundef %13, ptr noundef %ev6) #13
  store i32 %call7, ptr %rc, align 4
  br label %do.body8

do.body8:                                         ; preds = %do.end
  %15 = load i32, ptr %rc, align 4
  %cmp = icmp ne i32 %15, -1
  %lnot9 = xor i1 %cmp, true
  br i1 %lnot9, label %if.then10, label %if.end15

if.then10:                                        ; preds = %do.body8
  %call11 = call ptr @__errno_location() #14
  %16 = load i32, ptr %call11, align 4
  %call12 = call ptr @strerror(i32 noundef %16) #13
  store ptr %call12, ptr %errstr, align 8
  %17 = load ptr, ptr @stderr, align 8
  %18 = load ptr, ptr %errstr, align 8
  %call13 = call i32 (ptr, ptr, ...) @fprintf(ptr noundef %17, ptr noundef @.str, ptr noundef %18, ptr noundef @.str.1, i32 noundef 73)
  %19 = load ptr, ptr @stderr, align 8
  %call14 = call i32 @fflush(ptr noundef %19)
  %20 = load ptr, ptr %errstr, align 8
  call void @_ZN3zmq9zmq_abortEPKc(ptr noundef %20)
  br label %if.end15

if.end15:                                         ; preds = %if.then10, %do.body8
  br label %do.end16

do.end16:                                         ; preds = %if.end15
  call void @_ZN3zmq13poller_base_t11adjust_loadEi(ptr noundef nonnull align 8 dereferenceable(80) %this1, i32 noundef 1)
  %21 = load ptr, ptr %pe, align 8
  ret ptr %21
}