; Function Attrs: mustprogress uwtable
define noundef ptr @_ZN3zmq7epoll_t6add_fdEiPNS_13i_poll_eventsE(ptr noundef nonnull align 8 dereferenceable(224) %this, i32 noundef %fd_, ptr noundef %events_) local_unnamed_addr #0 align 2 {
entry:
  tail call void @_ZNK3zmq20worker_poller_base_t12check_threadEv(ptr noundef nonnull align 8 dereferenceable(192) %this)
  %call = tail call noalias noundef dereferenceable_or_null(24) ptr @_ZnwmRKSt9nothrow_t(i64 noundef 24, ptr noundef nonnull align 1 dereferenceable(1) @_ZSt7nothrow) #21
  %tobool.not = icmp eq ptr %call, null
  br i1 %tobool.not, label %if.then, label %do.end

if.then:                                          ; preds = %entry
  %0 = load ptr, ptr @stderr, align 8
  %call2 = tail call i32 (ptr, ptr, ...) @fprintf(ptr noundef %0, ptr noundef nonnull @.str.2, ptr noundef nonnull @.str.1, i32 noundef 61) #18
  %1 = load ptr, ptr @stderr, align 8
  %call3 = tail call i32 @fflush(ptr noundef %1)
  tail call void @_ZN3zmq9zmq_abortEPKc(ptr noundef nonnull @.str.3)
  br label %do.end

do.end:                                           ; preds = %entry, %if.then
  store i32 %fd_, ptr %call, align 8
  %ev = getelementptr inbounds i8, ptr %call, i64 4
  store i32 0, ptr %ev, align 4
  %data = getelementptr inbounds i8, ptr %call, i64 8
  store ptr %call, ptr %data, align 4
  %events5 = getelementptr inbounds i8, ptr %call, i64 16
  store ptr %events_, ptr %events5, align 8
  %_epoll_fd = getelementptr inbounds i8, ptr %this, i64 192
  %2 = load i32, ptr %_epoll_fd, align 8
  %call7 = tail call i32 @epoll_ctl(i32 noundef %2, i32 noundef 1, i32 noundef %fd_, ptr noundef nonnull %ev) #16
  %cmp.not = icmp eq i32 %call7, -1
  br i1 %cmp.not, label %if.then10, label %do.end16

if.then10:                                        ; preds = %do.end
  %call11 = tail call ptr @__errno_location() #17
  %3 = load i32, ptr %call11, align 4
  %call12 = tail call ptr @strerror(i32 noundef %3) #16
  %4 = load ptr, ptr @stderr, align 8
  %call13 = tail call i32 (ptr, ptr, ...) @fprintf(ptr noundef %4, ptr noundef nonnull @.str, ptr noundef %call12, ptr noundef nonnull @.str.1, i32 noundef 73) #18
  %5 = load ptr, ptr @stderr, align 8
  %call14 = tail call i32 @fflush(ptr noundef %5)
  tail call void @_ZN3zmq9zmq_abortEPKc(ptr noundef %call12)
  br label %do.end16

do.end16:                                         ; preds = %do.end, %if.then10
  tail call void @_ZN3zmq13poller_base_t11adjust_loadEi(ptr noundef nonnull align 8 dereferenceable(80) %this, i32 noundef 1)
  ret ptr %call
}